; Function Attrs: nofree norecurse nosync nounwind memory(readwrite, inaccessiblemem: none) uwtable
define internal noundef i32 @filter_noinverse_dbl_noclip(ptr readnone captures(none) %0, ptr noundef readonly captures(none) %1, i32 noundef %2, i32 noundef %3) #6 {
  %5 = getelementptr inbounds nuw i8, ptr %1, i64 8
  %6 = load ptr, ptr %5, align 8, !tbaa !47
  %7 = getelementptr inbounds nuw i8, ptr %1, i64 24
  %8 = load i32, ptr %7, align 8, !tbaa !48
  %9 = getelementptr inbounds nuw i8, ptr %1, i64 28
  %10 = load i32, ptr %9, align 4, !tbaa !50
  %11 = getelementptr inbounds nuw i8, ptr %1, i64 32
  %12 = load float, ptr %11, align 8, !tbaa !53
  %13 = fpext nsz float %12 to double
  %14 = mul nsw i32 %10, %2
  %15 = sdiv i32 %14, %3
  %16 = add nsw i32 %2, 1
  %17 = mul nsw i32 %10, %16
  %18 = sdiv i32 %17, %3
  %19 = load ptr, ptr %6, align 8, !tbaa !55
  %20 = icmp slt i32 %15, %18
  br i1 %20, label %.lr.ph47, label %._crit_edge48

.lr.ph47:                                         ; preds = %4
  %21 = getelementptr inbounds nuw i8, ptr %1, i64 16
  %22 = load ptr, ptr %21, align 8, !tbaa !46
  %23 = load ptr, ptr %1, align 8, !tbaa !44
  %24 = load ptr, ptr %22, align 8, !tbaa !55
  %25 = load ptr, ptr %23, align 8, !tbaa !55
  %26 = icmp sgt i32 %8, 0
  %27 = sext i32 %10 to i64
  br i1 %26, label %.lr.ph.us.preheader, label %._crit_edge48

.lr.ph.us.preheader:                              ; preds = %.lr.ph47
  %28 = sext i32 %15 to i64
  %wide.trip.count = sext i32 %18 to i64
  br label %.lr.ph.us

.lr.ph.us:                                        ; preds = %.lr.ph.us.preheader, %._crit_edge.us
  %indvars.iv = phi i64 [ %28, %.lr.ph.us.preheader ], [ %indvars.iv.next, %._crit_edge.us ]
  %29 = getelementptr inbounds double, ptr %19, i64 %indvars.iv
  %.pre = load double, ptr %29, align 8, !tbaa !76
  br label %30

30:                                               ; preds = %.lr.ph.us, %30
  %31 = phi double [ %.pre, %.lr.ph.us ], [ %33, %30 ]
  %.03944.us = phi i32 [ 0, %.lr.ph.us ], [ %39, %30 ]
  %.04043.us = phi ptr [ %25, %.lr.ph.us ], [ %37, %30 ]
  %.04142.us = phi ptr [ %24, %.lr.ph.us ], [ %38, %30 ]
  %32 = getelementptr inbounds double, ptr %.04142.us, i64 %indvars.iv
  %33 = load double, ptr %32, align 8, !tbaa !76
  %34 = fsub nsz double %33, %31
  %35 = tail call nsz double @llvm.fmuladd.f64(double %34, double %13, double %33)
  %36 = getelementptr inbounds double, ptr %.04043.us, i64 %indvars.iv
  store double %35, ptr %36, align 8, !tbaa !76
  store double %33, ptr %29, align 8, !tbaa !76
  %37 = getelementptr inbounds double, ptr %.04043.us, i64 %27
  %38 = getelementptr inbounds double, ptr %.04142.us, i64 %27
  %39 = add nuw nsw i32 %.03944.us, 1
  %exitcond.not = icmp eq i32 %39, %8
  br i1 %exitcond.not, label %._crit_edge.us, label %30, !llvm.loop !80

._crit_edge.us:                                   ; preds = %30
  %indvars.iv.next = add nsw i64 %indvars.iv, 1
  %exitcond51.not = icmp eq i64 %indvars.iv.next, %wide.trip.count
  br i1 %exitcond51.not, label %._crit_edge48, label %.lr.ph.us, !llvm.loop !81

._crit_edge48:                                    ; preds = %._crit_edge.us, %.lr.ph47, %4
  ret i32 0
}